target datalayout = "e-m:e-p270:32:32-p271:32:32-p272:64:64-i64:64-i128:128-f80:128-n8:16:32:64-S128"
target triple = "x86_64-pc-linux-gnu"

%struct.reroute_msg_t = type { ptr, ptr }

@.str.2 = private unnamed_addr constant [22 x i8] c"slurm_protocol_pack.c\00", align 1
@__func__._unpack_reroute_msg = private unnamed_addr constant [20 x i8] c"_unpack_reroute_msg\00", align 1

; Function Attrs: nounwind uwtable
define internal i32 @_unpack_reroute_msg(ptr noundef %0, ptr noundef %1, i16 noundef zeroext %2) #0 {
  %4 = alloca i32, align 4
  %5 = alloca ptr, align 8
  %6 = alloca ptr, align 8
  %7 = alloca i16, align 2
  %8 = alloca ptr, align 8
  %9 = alloca i8, align 1
  %10 = alloca i32, align 4
  %11 = alloca i32, align 4
  store ptr %0, ptr %5, align 8
  store ptr %1, ptr %6, align 8
  store i16 %2, ptr %7, align 2
  call void @llvm.lifetime.start.p0(i64 8, ptr %8) #6
  call void @llvm.lifetime.start.p0(i64 1, ptr %9) #6
  store i8 0, ptr %9, align 1
  %12 = call ptr @slurm_xcalloc(i64 noundef 1, i64 noundef 16, i1 noundef zeroext true, i1 noundef zeroext false, ptr noundef @.str.2, i32 noundef 7084, ptr noundef @__func__._unpack_reroute_msg)
  store ptr %12, ptr %8, align 8
  %13 = load ptr, ptr %8, align 8
  %14 = load ptr, ptr %5, align 8
  store ptr %13, ptr %14, align 8
  %15 = load i16, ptr %7, align 2
  %16 = zext i16 %15 to i32
  %17 = icmp sge i32 %16, 10496
  br i1 %17, label %18, label %49

18:                                               ; preds = %3
  br label %19

19:                                               ; preds = %18
  %20 = load ptr, ptr %6, align 8
  %21 = call i32 @unpack8(ptr noundef %9, ptr noundef %20)
  %22 = icmp ne i32 %21, 0
  br i1 %22, label %23, label %24

23:                                               ; preds = %19
  br label %73

24:                                               ; preds = %19
  br label %25

25:                                               ; preds = %24
  br label %26

26:                                               ; preds = %25
  %27 = load i8, ptr %9, align 1
  %28 = icmp ne i8 %27, 0
  br i1 %28, label %29, label %35

29:                                               ; preds = %26
  %30 = load ptr, ptr %8, align 8
  %31 = getelementptr inbounds nuw %struct.reroute_msg_t, ptr %30, i32 0, i32 1
  %32 = load i16, ptr %7, align 2
  %33 = load ptr, ptr %6, align 8
  %34 = call i32 @slurmdb_unpack_cluster_rec(ptr noundef %31, i16 noundef zeroext %32, ptr noundef %33)
  br label %35

35:                                               ; preds = %29, %26
  br label %36

36:                                               ; preds = %35
  call void @llvm.lifetime.start.p0(i64 4, ptr %10) #6
  %37 = load ptr, ptr %8, align 8
  %38 = getelementptr inbounds nuw %struct.reroute_msg_t, ptr %37, i32 0, i32 0
  %39 = load ptr, ptr %6, align 8
  %40 = call i32 @unpackstr_xmalloc_chooser(ptr noundef %38, ptr noundef %10, ptr noundef %39)
  %41 = icmp ne i32 %40, 0
  br i1 %41, label %42, label %43

42:                                               ; preds = %36
  store i32 4, ptr %11, align 4
  br label %44

43:                                               ; preds = %36
  store i32 0, ptr %11, align 4
  br label %44

44:                                               ; preds = %42, %43
  call void @llvm.lifetime.end.p0(i64 4, ptr %10) #6
  %45 = load i32, ptr %11, align 4
  switch i32 %45, label %76 [
    i32 0, label %46
    i32 4, label %73
  ]

46:                                               ; preds = %44
  br label %47

47:                                               ; preds = %46
  br label %48

48:                                               ; preds = %47
  br label %72

49:                                               ; preds = %3
  %50 = load i16, ptr %7, align 2
  %51 = zext i16 %50 to i32
  %52 = icmp sge i32 %51, 10240
  br i1 %52, label %53, label %71

53:                                               ; preds = %49
  br label %54

54:                                               ; preds = %53
  %55 = load ptr, ptr %6, align 8
  %56 = call i32 @unpack8(ptr noundef %9, ptr noundef %55)
  %57 = icmp ne i32 %56, 0
  br i1 %57, label %58, label %59

58:                                               ; preds = %54
  br label %73

59:                                               ; preds = %54
  br label %60

60:                                               ; preds = %59
  br label %61

61:                                               ; preds = %60
  %62 = load i8, ptr %9, align 1
  %63 = icmp ne i8 %62, 0
  br i1 %63, label %64, label %70

64:                                               ; preds = %61
  %65 = load ptr, ptr %8, align 8
  %66 = getelementptr inbounds nuw %struct.reroute_msg_t, ptr %65, i32 0, i32 1
  %67 = load i16, ptr %7, align 2
  %68 = load ptr, ptr %6, align 8
  %69 = call i32 @slurmdb_unpack_cluster_rec(ptr noundef %66, i16 noundef zeroext %67, ptr noundef %68)
  br label %70

70:                                               ; preds = %64, %61
  br label %71

71:                                               ; preds = %70, %49
  br label %72

72:                                               ; preds = %71, %48
  store i32 0, ptr %4, align 4
  store i32 1, ptr %11, align 4
  br label %76

73:                                               ; preds = %44, %58, %23
  %74 = load ptr, ptr %8, align 8
  call void @slurm_free_reroute_msg(ptr noundef %74)
  %75 = load ptr, ptr %5, align 8
  store ptr null, ptr %75, align 8
  store i32 -1, ptr %4, align 4
  store i32 1, ptr %11, align 4
  br label %76

76:                                               ; preds = %73, %72, %44
  call void @llvm.lifetime.end.p0(i64 1, ptr %9) #6
  call void @llvm.lifetime.end.p0(i64 8, ptr %8) #6
  %77 = load i32, ptr %4, align 4
  ret i32 %77
}