; Function Attrs: nounwind uwtable
define internal fastcc range(i32 -1, 1) i32 @_unpack_reroute_msg(ptr noundef writeonly captures(none) initializes((0, 8)) %0, ptr noundef %1, i16 noundef zeroext %2) unnamed_addr #0 {
  %4 = alloca i8, align 1
  %5 = alloca i32, align 4
  call void @llvm.lifetime.start.p0(i64 1, ptr nonnull %4) #7
  store i8 0, ptr %4, align 1
  %6 = tail call ptr @slurm_xcalloc(i64 noundef 1, i64 noundef 16, i1 noundef zeroext true, i1 noundef zeroext false, ptr noundef nonnull @.str.2, i32 noundef 7084, ptr noundef nonnull @__func__._unpack_reroute_msg) #7
  store ptr %6, ptr %0, align 8
  %7 = icmp ugt i16 %2, 10495
  br i1 %7, label %8, label %17

8:                                                ; preds = %3
  %9 = call i32 @unpack8(ptr noundef nonnull %4, ptr noundef %1) #7
  %.not20 = icmp eq i32 %9, 0
  br i1 %.not20, label %10, label %26

10:                                               ; preds = %8
  %11 = load i8, ptr %4, align 1
  %.not21 = icmp eq i8 %11, 0
  br i1 %.not21, label %15, label %12

12:                                               ; preds = %10
  %13 = getelementptr inbounds nuw i8, ptr %6, i64 8
  %14 = call i32 @slurmdb_unpack_cluster_rec(ptr noundef nonnull %13, i16 noundef zeroext %2, ptr noundef %1) #7
  br label %15

15:                                               ; preds = %10, %12
  call void @llvm.lifetime.start.p0(i64 4, ptr nonnull %5) #7
  %16 = call i32 @unpackstr_xmalloc_chooser(ptr noundef %6, ptr noundef nonnull %5, ptr noundef %1) #7
  %.not22 = icmp eq i32 %16, 0
  call void @llvm.lifetime.end.p0(i64 4, ptr nonnull %5) #7
  br i1 %.not22, label %27, label %26

17:                                               ; preds = %3
  %18 = icmp samesign ugt i16 %2, 10239
  br i1 %18, label %19, label %27

19:                                               ; preds = %17
  %20 = call i32 @unpack8(ptr noundef nonnull %4, ptr noundef %1) #7
  %.not = icmp eq i32 %20, 0
  br i1 %.not, label %21, label %26

21:                                               ; preds = %19
  %22 = load i8, ptr %4, align 1
  %.not19 = icmp eq i8 %22, 0
  br i1 %.not19, label %27, label %23

23:                                               ; preds = %21
  %24 = getelementptr inbounds nuw i8, ptr %6, i64 8
  %25 = call i32 @slurmdb_unpack_cluster_rec(ptr noundef nonnull %24, i16 noundef zeroext %2, ptr noundef %1) #7
  br label %27

26:                                               ; preds = %15, %19, %8
  call void @slurm_free_reroute_msg(ptr noundef %6) #7
  store ptr null, ptr %0, align 8
  br label %27

27:                                               ; preds = %15, %21, %23, %17, %26
  %.017 = phi i32 [ -1, %26 ], [ 0, %17 ], [ 0, %23 ], [ 0, %21 ], [ 0, %15 ]
  call void @llvm.lifetime.end.p0(i64 1, ptr nonnull %4) #7
  ret i32 %.017
}